; Function Attrs: mustprogress nofree norecurse nosync nounwind willreturn memory(read, inaccessiblemem: none) uwtable
define hidden noundef zeroext i1 @_ZNK3smt24theory_special_relations17is_neighbour_edgeERKNS0_5graphEi(ptr nocapture noundef nonnull readnone align 8 dereferenceable(145) %this, ptr nocapture noundef nonnull readonly align 8 dereferenceable(368) %g, i32 noundef %edge) local_unnamed_addr #12 align 2 {
entry:
  %m_edges.i = getelementptr inbounds i8, ptr %g, i64 40
  %0 = load ptr, ptr %m_edges.i, align 8
  %idxprom.i.i = zext i32 %edge to i64
  %m_enabled.i.i = getelementptr inbounds %class.dl_edge, ptr %0, i64 %idxprom.i.i, i32 5
  %1 = load i8, ptr %m_enabled.i.i, align 8
  %2 = and i8 %1, 1
  %tobool.i.i.not = icmp eq i8 %2, 0
  br i1 %tobool.i.i.not, label %land.end, label %land.rhs

land.rhs:                                         ; preds = %entry
  %arrayidx.i.i = getelementptr inbounds %class.dl_edge, ptr %0, i64 %idxprom.i.i
  %3 = load i32, ptr %arrayidx.i.i, align 8
  %m_assignment.i = getelementptr inbounds i8, ptr %g, i64 24
  %4 = load ptr, ptr %m_assignment.i, align 8
  %idxprom.i.i9 = zext i32 %3 to i64
  %arrayidx.i.i10 = getelementptr inbounds %class.s_integer, ptr %4, i64 %idxprom.i.i9
  %retval.sroa.0.0.copyload.i = load i32, ptr %arrayidx.i.i10, align 4
  %sub.i.i = add nsw i32 %retval.sroa.0.0.copyload.i, -1
  %m_target.i.i = getelementptr inbounds %class.dl_edge, ptr %0, i64 %idxprom.i.i, i32 1
  %5 = load i32, ptr %m_target.i.i, align 4
  %idxprom.i.i14 = zext i32 %5 to i64
  %arrayidx.i.i15 = getelementptr inbounds %class.s_integer, ptr %4, i64 %idxprom.i.i14
  %retval.sroa.0.0.copyload.i16 = load i32, ptr %arrayidx.i.i15, align 4
  %cmp.i = icmp eq i32 %sub.i.i, %retval.sroa.0.0.copyload.i16
  br label %land.end

land.end:                                         ; preds = %land.rhs, %entry
  %6 = phi i1 [ false, %entry ], [ %cmp.i, %land.rhs ]
  ret i1 %6
}